target datalayout = "e-m:e-p270:32:32-p271:32:32-p272:64:64-i64:64-i128:128-f80:128-n8:16:32:64-S128"
target triple = "x86_64-pc-linux-gnu"

%struct._php_stream_wrapper = type { ptr, ptr, i32 }
%struct._php_stream_wrapper_ops = type { ptr, ptr, ptr, ptr, ptr, ptr, ptr, ptr, ptr, ptr, ptr }

; Function Attrs: nounwind uwtable
define i32 @_php_stream_stat_path(ptr noundef %0, i32 noundef %1, ptr noundef %2, ptr noundef %3) #0 {
  %5 = alloca i32, align 4
  %6 = alloca ptr, align 8
  %7 = alloca i32, align 4
  %8 = alloca ptr, align 8
  %9 = alloca ptr, align 8
  %10 = alloca ptr, align 8
  %11 = alloca ptr, align 8
  store ptr %0, ptr %6, align 8
  store i32 %1, ptr %7, align 4
  store ptr %2, ptr %8, align 8
  store ptr %3, ptr %9, align 8
  store ptr null, ptr %10, align 8
  %12 = load ptr, ptr %6, align 8
  store ptr %12, ptr %11, align 8
  %13 = load ptr, ptr %8, align 8
  call void @llvm.memset.p0.i64(ptr align 8 %13, i8 0, i64 144, i1 false)
  %14 = load ptr, ptr %6, align 8
  %15 = call ptr @php_stream_locate_url_wrapper(ptr noundef %14, ptr noundef %11, i32 noundef 0)
  store ptr %15, ptr %10, align 8
  %16 = load ptr, ptr %10, align 8
  %17 = icmp ne ptr %16, null
  br i1 %17, label %18, label %37

18:                                               ; preds = %4
  %19 = load ptr, ptr %10, align 8
  %20 = getelementptr inbounds %struct._php_stream_wrapper, ptr %19, i32 0, i32 0
  %21 = load ptr, ptr %20, align 8
  %22 = getelementptr inbounds %struct._php_stream_wrapper_ops, ptr %21, i32 0, i32 3
  %23 = load ptr, ptr %22, align 8
  %24 = icmp ne ptr %23, null
  br i1 %24, label %25, label %37

25:                                               ; preds = %18
  %26 = load ptr, ptr %10, align 8
  %27 = getelementptr inbounds %struct._php_stream_wrapper, ptr %26, i32 0, i32 0
  %28 = load ptr, ptr %27, align 8
  %29 = getelementptr inbounds %struct._php_stream_wrapper_ops, ptr %28, i32 0, i32 3
  %30 = load ptr, ptr %29, align 8
  %31 = load ptr, ptr %10, align 8
  %32 = load ptr, ptr %11, align 8
  %33 = load i32, ptr %7, align 4
  %34 = load ptr, ptr %8, align 8
  %35 = load ptr, ptr %9, align 8
  %36 = call i32 %30(ptr noundef %31, ptr noundef %32, i32 noundef %33, ptr noundef %34, ptr noundef %35)
  store i32 %36, ptr %5, align 4
  br label %38

37:                                               ; preds = %18, %4
  store i32 -1, ptr %5, align 4
  br label %38

38:                                               ; preds = %37, %25
  %39 = load i32, ptr %5, align 4
  ret i32 %39
}