; Function Attrs: nounwind uwtable
define i32 @_php_stream_stat_path(ptr noundef %0, i32 noundef %1, ptr noundef %2, ptr noundef %3) local_unnamed_addr #2 {
  %5 = alloca ptr, align 8
  store ptr %0, ptr %5, align 8
  tail call void @llvm.memset.p0.i64(ptr noundef nonnull align 8 dereferenceable(144) %2, i8 0, i64 144, i1 false)
  %6 = call ptr @php_stream_locate_url_wrapper(ptr noundef %0, ptr noundef nonnull %5, i32 noundef 0)
  %.not = icmp eq ptr %6, null
  br i1 %.not, label %14, label %7

7:                                                ; preds = %4
  %8 = load ptr, ptr %6, align 8
  %9 = getelementptr inbounds i8, ptr %8, i64 24
  %10 = load ptr, ptr %9, align 8
  %.not12 = icmp eq ptr %10, null
  br i1 %.not12, label %14, label %11

11:                                               ; preds = %7
  %12 = load ptr, ptr %5, align 8
  %13 = call i32 %10(ptr noundef nonnull %6, ptr noundef %12, i32 noundef %1, ptr noundef nonnull %2, ptr noundef %3) #27
  br label %14

14:                                               ; preds = %4, %7, %11
  %.0 = phi i32 [ %13, %11 ], [ -1, %7 ], [ -1, %4 ]
  ret i32 %.0
}